target datalayout = "e-m:e-p270:32:32-p271:32:32-p272:64:64-i64:64-i128:128-f80:128-n8:16:32:64-S128"
target triple = "x86_64-pc-linux-gnu"

%"class.pxrInternal_v0_24__pxrReserved__::TfAnyWeakPtr" = type { %"struct.pxrInternal_v0_24__pxrReserved__::TfAnyWeakPtr::_Data" }
%"struct.pxrInternal_v0_24__pxrReserved__::TfAnyWeakPtr::_Data" = type { [4 x ptr] }

; Function Attrs: mustprogress nounwind uwtable
define linkonce_odr noundef ptr @_ZNK32pxrInternal_v0_24__pxrReserved__12TfAnyWeakPtr4_GetEv(ptr noundef nonnull align 8 dereferenceable(32) %0) #0 comdat align 2 {
  %2 = alloca ptr, align 8
  store ptr %0, ptr %2, align 8
  %3 = load ptr, ptr %2, align 8
  %4 = getelementptr inbounds nuw %"class.pxrInternal_v0_24__pxrReserved__::TfAnyWeakPtr", ptr %3, i32 0, i32 0
  ret ptr %4
}

; Function Attrs: mustprogress uwtable
define noundef ptr @_ZNK32pxrInternal_v0_24__pxrReserved__12TfAnyWeakPtr19GetUniqueIdentifierEv(ptr noundef nonnull align 8 dereferenceable(32) %0) #3 align 2 {
  %2 = alloca ptr, align 8
  store ptr %0, ptr %2, align 8
  %3 = load ptr, ptr %2, align 8
  %4 = call noundef ptr @_ZNK32pxrInternal_v0_24__pxrReserved__12TfAnyWeakPtr4_GetEv(ptr noundef nonnull align 8 dereferenceable(32) %3)
  %5 = load ptr, ptr %4, align 8
  %6 = getelementptr inbounds ptr, ptr %5, i64 4
  %7 = load ptr, ptr %6, align 8
  %8 = call noundef ptr %7(ptr noundef nonnull align 8 dereferenceable(8) %4)
  ret ptr %8
}

; Function Attrs: mustprogress uwtable
define noundef zeroext i1 @_ZNK32pxrInternal_v0_24__pxrReserved__12TfAnyWeakPtreqERKS0_(ptr noundef nonnull align 8 dereferenceable(32) %0, ptr noundef nonnull align 8 dereferenceable(32) %1) #3 align 2 {
  %3 = alloca ptr, align 8
  %4 = alloca ptr, align 8
  store ptr %0, ptr %3, align 8
  store ptr %1, ptr %4, align 8
  %5 = load ptr, ptr %3, align 8
  %6 = call noundef ptr @_ZNK32pxrInternal_v0_24__pxrReserved__12TfAnyWeakPtr19GetUniqueIdentifierEv(ptr noundef nonnull align 8 dereferenceable(32) %5)
  %7 = load ptr, ptr %4, align 8
  %8 = call noundef ptr @_ZNK32pxrInternal_v0_24__pxrReserved__12TfAnyWeakPtr19GetUniqueIdentifierEv(ptr noundef nonnull align 8 dereferenceable(32) %7)
  %9 = icmp eq ptr %6, %8
  ret i1 %9
}